target datalayout = "e-m:e-p270:32:32-p271:32:32-p272:64:64-i64:64-i128:128-f80:128-n8:16:32:64-S128"
target triple = "x86_64-unknown-linux-gnu"

%"class.std::set.0" = type { %"class.std::_Rb_tree.1" }
%"class.std::_Rb_tree.1" = type { %"struct.std::_Rb_tree<QuantLib::Observer *, QuantLib::Observer *, std::_Identity<QuantLib::Observer *>, std::less<QuantLib::Observer *>>::_Rb_tree_impl" }
%"struct.std::_Rb_tree<QuantLib::Observer *, QuantLib::Observer *, std::_Identity<QuantLib::Observer *>, std::less<QuantLib::Observer *>>::_Rb_tree_impl" = type { [8 x i8], %"struct.std::_Rb_tree_header" }
%"struct.std::_Rb_tree_header" = type { %"struct.std::_Rb_tree_node_base", i64 }
%"struct.std::_Rb_tree_node_base" = type { i32, ptr, ptr, ptr }
%"class.std::set" = type { %"class.std::_Rb_tree" }
%"class.std::_Rb_tree" = type { %"struct.std::_Rb_tree<boost::shared_ptr<QuantLib::Observable>, boost::shared_ptr<QuantLib::Observable>, std::_Identity<boost::shared_ptr<QuantLib::Observable>>, std::less<boost::shared_ptr<QuantLib::Observable>>>::_Rb_tree_impl" }
%"struct.std::_Rb_tree<boost::shared_ptr<QuantLib::Observable>, boost::shared_ptr<QuantLib::Observable>, std::_Identity<boost::shared_ptr<QuantLib::Observable>>, std::less<boost::shared_ptr<QuantLib::Observable>>>::_Rb_tree_impl" = type { [8 x i8], %"struct.std::_Rb_tree_header" }
%"class.boost::detail::shared_count" = type { ptr }
%"class.QuantLib::Observable" = type { ptr, %"class.std::set.0" }
%"class.QuantLib::Observer" = type { ptr, %"class.std::set" }
%"class.QuantLib::CompositeInstrument" = type { %"class.QuantLib::Instrument.base", %"class.std::__cxx11::list", %"class.QuantLib::Observable", %"class.QuantLib::Observer" }
%"class.QuantLib::Instrument.base" = type { %"class.QuantLib::LazyObject.base", double, double, %"class.QuantLib::Date", %"class.std::map", %"class.boost::shared_ptr.16" }
%"class.QuantLib::LazyObject.base" = type <{ ptr, i8, i8, i8, i8 }>
%"class.QuantLib::Date" = type { i64 }
%"class.std::map" = type { %"class.std::_Rb_tree.11" }
%"class.std::_Rb_tree.11" = type { %"struct.std::_Rb_tree<std::__cxx11::basic_string<char>, std::pair<const std::__cxx11::basic_string<char>, boost::any>, std::_Select1st<std::pair<const std::__cxx11::basic_string<char>, boost::any>>, std::less<std::__cxx11::basic_string<char>>>::_Rb_tree_impl" }
%"struct.std::_Rb_tree<std::__cxx11::basic_string<char>, std::pair<const std::__cxx11::basic_string<char>, boost::any>, std::_Select1st<std::pair<const std::__cxx11::basic_string<char>, boost::any>>, std::less<std::__cxx11::basic_string<char>>>::_Rb_tree_impl" = type { [8 x i8], %"struct.std::_Rb_tree_header" }
%"class.boost::shared_ptr.16" = type { ptr, %"class.boost::detail::shared_count" }
%"class.std::__cxx11::list" = type { %"class.std::__cxx11::_List_base" }
%"class.std::__cxx11::_List_base" = type { %"struct.std::__cxx11::_List_base<std::pair<boost::shared_ptr<QuantLib::Instrument>, double>, std::allocator<std::pair<boost::shared_ptr<QuantLib::Instrument>, double>>>::_List_impl" }
%"struct.std::__cxx11::_List_base<std::pair<boost::shared_ptr<QuantLib::Instrument>, double>, std::allocator<std::pair<boost::shared_ptr<QuantLib::Instrument>, double>>>::_List_impl" = type { %"struct.std::__detail::_List_node_header" }
%"struct.std::__detail::_List_node_header" = type { %"struct.std::__detail::_List_node_base", i64 }
%"struct.std::__detail::_List_node_base" = type { ptr, ptr }
%"class.boost::shared_ptr.6" = type { ptr, %"class.boost::detail::shared_count" }
%"struct.std::_List_iterator" = type { ptr }
%"struct.std::pair" = type { %"class.boost::shared_ptr.6", double }
%"struct.std::_List_node" = type { %"struct.std::__detail::_List_node_base", %"struct.__gnu_cxx::__aligned_membuf.51" }
%"struct.__gnu_cxx::__aligned_membuf.51" = type { [24 x i8] }

@.str.5 = private unnamed_addr constant [8 x i8] c"px != 0\00", align 1
@.str.6 = private unnamed_addr constant [102 x i8] c"generated/home/dtcxzyw/WorkSpace/SDK/vcpkg/installed/x64-linux/include/boost/smart_ptr/shared_ptr.hpp\00", align 1
@__PRETTY_FUNCTION__._ZNK5boost10shared_ptrIN8QuantLib10InstrumentEEptEv = private unnamed_addr constant [137 x i8] c"typename boost::detail::sp_member_access<T>::type boost::shared_ptr<QuantLib::Instrument>::operator->() const [T = QuantLib::Instrument]\00", align 1

; Function Attrs: mustprogress nounwind uwtable
define linkonce_odr noundef ptr @_ZN9__gnu_cxx16__aligned_membufISt4pairIN5boost10shared_ptrIN8QuantLib10InstrumentEEEdEE7_M_addrEv(ptr noundef nonnull align 8 dereferenceable(24) %this) #1 comdat align 2 {
entry:
  %this.addr = alloca ptr, align 8
  store ptr %this, ptr %this.addr, align 8, !tbaa !3
  %this1 = load ptr, ptr %this.addr, align 8
  %_M_storage = getelementptr inbounds nuw %"struct.__gnu_cxx::__aligned_membuf.51", ptr %this1, i32 0, i32 0
  ret ptr %_M_storage
}

; Function Attrs: mustprogress nounwind uwtable
define linkonce_odr noundef ptr @_ZN9__gnu_cxx16__aligned_membufISt4pairIN5boost10shared_ptrIN8QuantLib10InstrumentEEEdEE6_M_ptrEv(ptr noundef nonnull align 8 dereferenceable(24) %this) #1 comdat align 2 {
entry:
  %this.addr = alloca ptr, align 8
  store ptr %this, ptr %this.addr, align 8, !tbaa !3
  %this1 = load ptr, ptr %this.addr, align 8
  %call = call noundef ptr @_ZN9__gnu_cxx16__aligned_membufISt4pairIN5boost10shared_ptrIN8QuantLib10InstrumentEEEdEE7_M_addrEv(ptr noundef nonnull align 8 dereferenceable(24) %this1) #13
  ret ptr %call
}

; Function Attrs: mustprogress nounwind uwtable
define linkonce_odr noundef ptr @_ZNSt10_List_nodeISt4pairIN5boost10shared_ptrIN8QuantLib10InstrumentEEEdEE9_M_valptrEv(ptr noundef nonnull align 8 dereferenceable(40) %this) #1 comdat align 2 {
entry:
  %this.addr = alloca ptr, align 8
  store ptr %this, ptr %this.addr, align 8, !tbaa !3
  %this1 = load ptr, ptr %this.addr, align 8
  %_M_storage = getelementptr inbounds nuw %"struct.std::_List_node", ptr %this1, i32 0, i32 1
  %call = call noundef ptr @_ZN9__gnu_cxx16__aligned_membufISt4pairIN5boost10shared_ptrIN8QuantLib10InstrumentEEEdEE6_M_ptrEv(ptr noundef nonnull align 8 dereferenceable(24) %_M_storage) #13
  ret ptr %call
}

; Function Attrs: mustprogress nounwind uwtable
define linkonce_odr void @_ZNSt14_List_iteratorISt4pairIN5boost10shared_ptrIN8QuantLib10InstrumentEEEdEEC2EPNSt8__detail15_List_node_baseE(ptr noundef nonnull align 8 dereferenceable(8) %this, ptr noundef %__x) unnamed_addr #1 comdat align 2 {
entry:
  %this.addr = alloca ptr, align 8
  %__x.addr = alloca ptr, align 8
  store ptr %this, ptr %this.addr, align 8, !tbaa !3
  store ptr %__x, ptr %__x.addr, align 8, !tbaa !3
  %this1 = load ptr, ptr %this.addr, align 8
  %_M_node = getelementptr inbounds nuw %"struct.std::_List_iterator", ptr %this1, i32 0, i32 0
  %0 = load ptr, ptr %__x.addr, align 8, !tbaa !3
  store ptr %0, ptr %_M_node, align 8, !tbaa !48
  ret void
}

; Function Attrs: mustprogress nounwind uwtable
define linkonce_odr noundef nonnull align 8 dereferenceable(8) ptr @_ZNSt14_List_iteratorISt4pairIN5boost10shared_ptrIN8QuantLib10InstrumentEEEdEEppEv(ptr noundef nonnull align 8 dereferenceable(8) %this) #1 comdat align 2 {
entry:
  %this.addr = alloca ptr, align 8
  store ptr %this, ptr %this.addr, align 8, !tbaa !3
  %this1 = load ptr, ptr %this.addr, align 8
  %_M_node = getelementptr inbounds nuw %"struct.std::_List_iterator", ptr %this1, i32 0, i32 0
  %0 = load ptr, ptr %_M_node, align 8, !tbaa !48
  %_M_next = getelementptr inbounds nuw %"struct.std::__detail::_List_node_base", ptr %0, i32 0, i32 0
  %1 = load ptr, ptr %_M_next, align 8, !tbaa !29
  %_M_node2 = getelementptr inbounds nuw %"struct.std::_List_iterator", ptr %this1, i32 0, i32 0
  store ptr %1, ptr %_M_node2, align 8, !tbaa !48
  ret ptr %this1
}

; Function Attrs: mustprogress uwtable
define linkonce_odr noundef ptr @_ZNK5boost10shared_ptrIN8QuantLib10InstrumentEEptEv(ptr noundef nonnull align 8 dereferenceable(16) %this) #2 comdat align 2 {
entry:
  %this.addr = alloca ptr, align 8
  store ptr %this, ptr %this.addr, align 8, !tbaa !3
  %this1 = load ptr, ptr %this.addr, align 8
  %px = getelementptr inbounds nuw %"class.boost::shared_ptr.6", ptr %this1, i32 0, i32 0
  %0 = load ptr, ptr %px, align 8, !tbaa !26
  %cmp = icmp ne ptr %0, null
  %lnot = xor i1 %cmp, true
  %lnot2 = xor i1 %lnot, true
  %conv = zext i1 %lnot2 to i64
  %expval = call i64 @llvm.expect.i64(i64 %conv, i64 1)
  %tobool = icmp ne i64 %expval, 0
  br i1 %tobool, label %cond.true, label %cond.false

cond.true:                                        ; preds = %entry
  br label %cond.end

cond.false:                                       ; preds = %entry
  call void @_ZN5boost16assertion_failedEPKcS1_S1_l(ptr noundef @.str.5, ptr noundef @__PRETTY_FUNCTION__._ZNK5boost10shared_ptrIN8QuantLib10InstrumentEEptEv, ptr noundef @.str.6, i64 noundef 784)
  br label %cond.end

cond.end:                                         ; preds = %cond.false, %cond.true
  %px3 = getelementptr inbounds nuw %"class.boost::shared_ptr.6", ptr %this1, i32 0, i32 0
  %1 = load ptr, ptr %px3, align 8, !tbaa !26
  ret ptr %1
}

; Function Attrs: mustprogress nounwind uwtable
define linkonce_odr noundef nonnull align 8 dereferenceable(24) ptr @_ZNKSt14_List_iteratorISt4pairIN5boost10shared_ptrIN8QuantLib10InstrumentEEEdEEdeEv(ptr noundef nonnull align 8 dereferenceable(8) %this) #1 comdat align 2 {
entry:
  %this.addr = alloca ptr, align 8
  store ptr %this, ptr %this.addr, align 8, !tbaa !3
  %this1 = load ptr, ptr %this.addr, align 8
  %_M_node = getelementptr inbounds nuw %"struct.std::_List_iterator", ptr %this1, i32 0, i32 0
  %0 = load ptr, ptr %_M_node, align 8, !tbaa !48
  %call = call noundef ptr @_ZNSt10_List_nodeISt4pairIN5boost10shared_ptrIN8QuantLib10InstrumentEEEdEE9_M_valptrEv(ptr noundef nonnull align 8 dereferenceable(40) %0)
  ret ptr %call
}

; Function Attrs: mustprogress nounwind uwtable
define linkonce_odr noundef zeroext i1 @_ZStneRKSt14_List_iteratorISt4pairIN5boost10shared_ptrIN8QuantLib10InstrumentEEEdEES9_(ptr noundef nonnull align 8 dereferenceable(8) %__x, ptr noundef nonnull align 8 dereferenceable(8) %__y) #1 comdat {
entry:
  %__x.addr = alloca ptr, align 8
  %__y.addr = alloca ptr, align 8
  store ptr %__x, ptr %__x.addr, align 8, !tbaa !3
  store ptr %__y, ptr %__y.addr, align 8, !tbaa !3
  %0 = load ptr, ptr %__x.addr, align 8, !tbaa !3
  %_M_node = getelementptr inbounds nuw %"struct.std::_List_iterator", ptr %0, i32 0, i32 0
  %1 = load ptr, ptr %_M_node, align 8, !tbaa !48
  %2 = load ptr, ptr %__y.addr, align 8, !tbaa !3
  %_M_node1 = getelementptr inbounds nuw %"struct.std::_List_iterator", ptr %2, i32 0, i32 0
  %3 = load ptr, ptr %_M_node1, align 8, !tbaa !48
  %cmp = icmp ne ptr %1, %3
  ret i1 %cmp
}

; Function Attrs: mustprogress nounwind uwtable
define linkonce_odr ptr @_ZNSt7__cxx114listISt4pairIN5boost10shared_ptrIN8QuantLib10InstrumentEEEdESaIS7_EE3endEv(ptr noundef nonnull align 8 dereferenceable(24) %this) #1 comdat align 2 {
entry:
  %retval = alloca %"struct.std::_List_iterator", align 8
  %this.addr = alloca ptr, align 8
  store ptr %this, ptr %this.addr, align 8, !tbaa !3
  %this1 = load ptr, ptr %this.addr, align 8
  %_M_impl = getelementptr inbounds nuw %"class.std::__cxx11::_List_base", ptr %this1, i32 0, i32 0
  %_M_node = getelementptr inbounds nuw %"struct.std::__cxx11::_List_base<std::pair<boost::shared_ptr<QuantLib::Instrument>, double>, std::allocator<std::pair<boost::shared_ptr<QuantLib::Instrument>, double>>>::_List_impl", ptr %_M_impl, i32 0, i32 0
  call void @_ZNSt14_List_iteratorISt4pairIN5boost10shared_ptrIN8QuantLib10InstrumentEEEdEEC2EPNSt8__detail15_List_node_baseE(ptr noundef nonnull align 8 dereferenceable(8) %retval, ptr noundef %_M_node) #13
  %coerce.dive = getelementptr inbounds nuw %"struct.std::_List_iterator", ptr %retval, i32 0, i32 0
  %0 = load ptr, ptr %coerce.dive, align 8
  ret ptr %0
}

; Function Attrs: mustprogress nounwind uwtable
define linkonce_odr ptr @_ZNSt7__cxx114listISt4pairIN5boost10shared_ptrIN8QuantLib10InstrumentEEEdESaIS7_EE5beginEv(ptr noundef nonnull align 8 dereferenceable(24) %this) #1 comdat align 2 {
entry:
  %retval = alloca %"struct.std::_List_iterator", align 8
  %this.addr = alloca ptr, align 8
  store ptr %this, ptr %this.addr, align 8, !tbaa !3
  %this1 = load ptr, ptr %this.addr, align 8
  %_M_impl = getelementptr inbounds nuw %"class.std::__cxx11::_List_base", ptr %this1, i32 0, i32 0
  %_M_node = getelementptr inbounds nuw %"struct.std::__cxx11::_List_base<std::pair<boost::shared_ptr<QuantLib::Instrument>, double>, std::allocator<std::pair<boost::shared_ptr<QuantLib::Instrument>, double>>>::_List_impl", ptr %_M_impl, i32 0, i32 0
  %_M_next = getelementptr inbounds nuw %"struct.std::__detail::_List_node_base", ptr %_M_node, i32 0, i32 0
  %0 = load ptr, ptr %_M_next, align 8, !tbaa !29
  call void @_ZNSt14_List_iteratorISt4pairIN5boost10shared_ptrIN8QuantLib10InstrumentEEEdEEC2EPNSt8__detail15_List_node_baseE(ptr noundef nonnull align 8 dereferenceable(8) %retval, ptr noundef %0) #13
  %coerce.dive = getelementptr inbounds nuw %"struct.std::_List_iterator", ptr %retval, i32 0, i32 0
  %1 = load ptr, ptr %coerce.dive, align 8
  ret ptr %1
}

; Function Attrs: mustprogress uwtable
define void @_ZN8QuantLib19CompositeInstrument10deepUpdateEv(ptr noundef nonnull align 8 dereferenceable(128) %this) unnamed_addr #2 align 2 {
entry:
  %this.addr = alloca ptr, align 8
  %__range1 = alloca ptr, align 8
  %__begin1 = alloca %"struct.std::_List_iterator", align 8
  %__end1 = alloca %"struct.std::_List_iterator", align 8
  %component = alloca ptr, align 8
  store ptr %this, ptr %this.addr, align 8, !tbaa !3
  %this1 = load ptr, ptr %this.addr, align 8
  call void @llvm.lifetime.start.p0(i64 8, ptr %__range1) #13
  %components_ = getelementptr inbounds nuw %"class.QuantLib::CompositeInstrument", ptr %this1, i32 0, i32 1
  store ptr %components_, ptr %__range1, align 8, !tbaa !3
  call void @llvm.lifetime.start.p0(i64 8, ptr %__begin1) #13
  %0 = load ptr, ptr %__range1, align 8, !tbaa !3
  %call = call ptr @_ZNSt7__cxx114listISt4pairIN5boost10shared_ptrIN8QuantLib10InstrumentEEEdESaIS7_EE5beginEv(ptr noundef nonnull align 8 dereferenceable(24) %0) #13
  %coerce.dive = getelementptr inbounds nuw %"struct.std::_List_iterator", ptr %__begin1, i32 0, i32 0
  store ptr %call, ptr %coerce.dive, align 8
  call void @llvm.lifetime.start.p0(i64 8, ptr %__end1) #13
  %1 = load ptr, ptr %__range1, align 8, !tbaa !3
  %call2 = call ptr @_ZNSt7__cxx114listISt4pairIN5boost10shared_ptrIN8QuantLib10InstrumentEEEdESaIS7_EE3endEv(ptr noundef nonnull align 8 dereferenceable(24) %1) #13
  %coerce.dive3 = getelementptr inbounds nuw %"struct.std::_List_iterator", ptr %__end1, i32 0, i32 0
  store ptr %call2, ptr %coerce.dive3, align 8
  br label %for.cond

for.cond:                                         ; preds = %for.inc, %entry
  %call4 = call noundef zeroext i1 @_ZStneRKSt14_List_iteratorISt4pairIN5boost10shared_ptrIN8QuantLib10InstrumentEEEdEES9_(ptr noundef nonnull align 8 dereferenceable(8) %__begin1, ptr noundef nonnull align 8 dereferenceable(8) %__end1) #13
  br i1 %call4, label %for.body, label %for.cond.cleanup

for.cond.cleanup:                                 ; preds = %for.cond
  call void @llvm.lifetime.end.p0(i64 8, ptr %__end1) #13
  call void @llvm.lifetime.end.p0(i64 8, ptr %__begin1) #13
  call void @llvm.lifetime.end.p0(i64 8, ptr %__range1) #13
  br label %for.end

for.body:                                         ; preds = %for.cond
  call void @llvm.lifetime.start.p0(i64 8, ptr %component) #13
  %call5 = call noundef nonnull align 8 dereferenceable(24) ptr @_ZNKSt14_List_iteratorISt4pairIN5boost10shared_ptrIN8QuantLib10InstrumentEEEdEEdeEv(ptr noundef nonnull align 8 dereferenceable(8) %__begin1) #13
  store ptr %call5, ptr %component, align 8, !tbaa !3
  %2 = load ptr, ptr %component, align 8, !tbaa !3
  %first = getelementptr inbounds nuw %"struct.std::pair", ptr %2, i32 0, i32 0
  %call6 = call noundef ptr @_ZNK5boost10shared_ptrIN8QuantLib10InstrumentEEptEv(ptr noundef nonnull align 8 dereferenceable(16) %first)
  %vtable = load ptr, ptr %call6, align 8, !tbaa !20
  %vbase.offset.ptr = getelementptr i8, ptr %vtable, i64 -32
  %vbase.offset = load i64, ptr %vbase.offset.ptr, align 8
  %add.ptr = getelementptr inbounds i8, ptr %call6, i64 %vbase.offset
  %vtable7 = load ptr, ptr %add.ptr, align 8, !tbaa !20
  %vfn = getelementptr inbounds ptr, ptr %vtable7, i64 3
  %3 = load ptr, ptr %vfn, align 8
  call void %3(ptr noundef nonnull align 8 dereferenceable(56) %add.ptr)
  call void @llvm.lifetime.end.p0(i64 8, ptr %component) #13
  br label %for.inc

for.inc:                                          ; preds = %for.body
  %call8 = call noundef nonnull align 8 dereferenceable(8) ptr @_ZNSt14_List_iteratorISt4pairIN5boost10shared_ptrIN8QuantLib10InstrumentEEEdEEppEv(ptr noundef nonnull align 8 dereferenceable(8) %__begin1) #13
  br label %for.cond

for.end:                                          ; preds = %for.cond.cleanup
  %vtable9 = load ptr, ptr %this1, align 8, !tbaa !20
  %vfn10 = getelementptr inbounds ptr, ptr %vtable9, i64 2
  %4 = load ptr, ptr %vfn10, align 8
  call void %4(ptr noundef nonnull align 8 dereferenceable(12) %this1)
  ret void
}