; Function Attrs: mustprogress uwtable
define void @_ZN8QuantLib19CompositeInstrument10deepUpdateEv(ptr noundef nonnull align 8 dereferenceable(128) %this) unnamed_addr #8 align 2 {
entry:
  %components_ = getelementptr inbounds nuw i8, ptr %this, i64 104
  %__begin1.sroa.0.04 = load ptr, ptr %components_, align 8, !tbaa !60
  %cmp.i.not5 = icmp eq ptr %__begin1.sroa.0.04, %components_
  br i1 %cmp.i.not5, label %for.cond.cleanup, label %for.body

for.cond.cleanup:                                 ; preds = %_ZNK5boost10shared_ptrIN8QuantLib10InstrumentEEptEv.exit, %entry
  %vtable9 = load ptr, ptr %this, align 8, !tbaa !33
  %vfn10 = getelementptr inbounds i8, ptr %vtable9, i64 16
  %0 = load ptr, ptr %vfn10, align 8
  tail call void %0(ptr noundef nonnull align 8 dereferenceable(12) %this)
  ret void

for.body:                                         ; preds = %entry, %_ZNK5boost10shared_ptrIN8QuantLib10InstrumentEEptEv.exit
  %__begin1.sroa.0.06 = phi ptr [ %__begin1.sroa.0.0, %_ZNK5boost10shared_ptrIN8QuantLib10InstrumentEEptEv.exit ], [ %__begin1.sroa.0.04, %entry ]
  %_M_storage.i.i = getelementptr inbounds nuw i8, ptr %__begin1.sroa.0.06, i64 16
  %1 = load ptr, ptr %_M_storage.i.i, align 8, !tbaa !35
  %cmp.not.i = icmp eq ptr %1, null
  br i1 %cmp.not.i, label %cond.false.i, label %_ZNK5boost10shared_ptrIN8QuantLib10InstrumentEEptEv.exit, !prof !57

cond.false.i:                                     ; preds = %for.body
  tail call void @_ZN5boost16assertion_failedEPKcS1_S1_l(ptr noundef nonnull @.str.5, ptr noundef nonnull @__PRETTY_FUNCTION__._ZNK5boost10shared_ptrIN8QuantLib10InstrumentEEptEv, ptr noundef nonnull @.str.6, i64 noundef 784)
  %.pre.i = load ptr, ptr %_M_storage.i.i, align 8, !tbaa !35
  br label %_ZNK5boost10shared_ptrIN8QuantLib10InstrumentEEptEv.exit

_ZNK5boost10shared_ptrIN8QuantLib10InstrumentEEptEv.exit: ; preds = %for.body, %cond.false.i
  %2 = phi ptr [ %1, %for.body ], [ %.pre.i, %cond.false.i ]
  %vtable = load ptr, ptr %2, align 8, !tbaa !33
  %vbase.offset.ptr = getelementptr i8, ptr %vtable, i64 -32
  %vbase.offset = load i64, ptr %vbase.offset.ptr, align 8
  %add.ptr = getelementptr inbounds i8, ptr %2, i64 %vbase.offset
  %vtable7 = load ptr, ptr %add.ptr, align 8, !tbaa !33
  %vfn = getelementptr inbounds i8, ptr %vtable7, i64 24
  %3 = load ptr, ptr %vfn, align 8
  tail call void %3(ptr noundef nonnull align 8 dereferenceable(56) %add.ptr)
  %__begin1.sroa.0.0 = load ptr, ptr %__begin1.sroa.0.06, align 8, !tbaa !60
  %cmp.i.not = icmp eq ptr %__begin1.sroa.0.0, %components_
  br i1 %cmp.i.not, label %for.cond.cleanup, label %for.body
}